target datalayout = "e-m:e-p270:32:32-p271:32:32-p272:64:64-i64:64-i128:128-f80:128-n8:16:32:64-S128"
target triple = "x86_64-pc-linux-gnu"

%"struct.pxrInternal_v0_24__pxrReserved__::HdRenderPassAovBinding" = type { %"class.pxrInternal_v0_24__pxrReserved__::TfToken", ptr, %"class.pxrInternal_v0_24__pxrReserved__::SdfPath", %"class.pxrInternal_v0_24__pxrReserved__::VtValue", %"class.pxrInternal_v0_24__pxrReserved__::TfHashMap" }
%"class.pxrInternal_v0_24__pxrReserved__::TfToken" = type { %"class.pxrInternal_v0_24__pxrReserved__::TfPointerAndBits" }
%"class.pxrInternal_v0_24__pxrReserved__::TfPointerAndBits" = type { ptr }
%"class.pxrInternal_v0_24__pxrReserved__::SdfPath" = type { %"struct.pxrInternal_v0_24__pxrReserved__::Sdf_PathNodeHandleImpl", %"struct.pxrInternal_v0_24__pxrReserved__::Sdf_PathNodeHandleImpl.0" }
%"struct.pxrInternal_v0_24__pxrReserved__::Sdf_PathNodeHandleImpl" = type { %"struct.pxrInternal_v0_24__pxrReserved__::Sdf_Pool<pxrInternal_v0_24__pxrReserved__::Sdf_PathPrimTag, 24, 8>::Handle" }
%"struct.pxrInternal_v0_24__pxrReserved__::Sdf_Pool<pxrInternal_v0_24__pxrReserved__::Sdf_PathPrimTag, 24, 8>::Handle" = type { i32 }
%"struct.pxrInternal_v0_24__pxrReserved__::Sdf_PathNodeHandleImpl.0" = type { %"struct.pxrInternal_v0_24__pxrReserved__::Sdf_Pool<pxrInternal_v0_24__pxrReserved__::Sdf_PathPropTag, 24, 8>::Handle" }
%"struct.pxrInternal_v0_24__pxrReserved__::Sdf_Pool<pxrInternal_v0_24__pxrReserved__::Sdf_PathPropTag, 24, 8>::Handle" = type { i32 }
%"class.pxrInternal_v0_24__pxrReserved__::VtValue" = type { %"union.std::aligned_storage<8, 8>::type", %"class.pxrInternal_v0_24__pxrReserved__::TfPointerAndBits.1" }
%"union.std::aligned_storage<8, 8>::type" = type { [8 x i8] }
%"class.pxrInternal_v0_24__pxrReserved__::TfPointerAndBits.1" = type { ptr }
%"class.pxrInternal_v0_24__pxrReserved__::TfHashMap" = type { %"class.std::unordered_map" }
%"class.std::unordered_map" = type { %"class.std::_Hashtable" }
%"class.std::_Hashtable" = type { ptr, i64, %"struct.std::__detail::_Hash_node_base", i64, %"struct.std::__detail::_Prime_rehash_policy", ptr }
%"struct.std::__detail::_Hash_node_base" = type { ptr }
%"struct.std::__detail::_Prime_rehash_policy" = type { float, i64 }
%"struct.pxrInternal_v0_24__pxrReserved__::SdfPath::Hash" = type { i8 }
%"class.pxrInternal_v0_24__pxrReserved__::TfHash" = type { i8 }
%"class.pxrInternal_v0_24__pxrReserved__::Tf_HashState" = type <{ i64, i8, [7 x i8] }>

; Function Attrs: mustprogress nounwind uwtable
define linkonce_odr noundef i64 @_ZNK32pxrInternal_v0_24__pxrReserved__12Tf_HashState8_CombineEmm(ptr noundef nonnull align 8 dereferenceable(9) %0, i64 noundef %1, i64 noundef %2) #2 comdat align 2 {
  %4 = alloca ptr, align 8
  %5 = alloca i64, align 8
  %6 = alloca i64, align 8
  store ptr %0, ptr %4, align 8
  store i64 %1, ptr %5, align 8
  store i64 %2, ptr %6, align 8
  %7 = load i64, ptr %6, align 8
  %8 = load i64, ptr %5, align 8
  %9 = add i64 %8, %7
  store i64 %9, ptr %5, align 8
  %10 = load i64, ptr %6, align 8
  %11 = load i64, ptr %5, align 8
  %12 = load i64, ptr %5, align 8
  %13 = add i64 %12, 1
  %14 = mul i64 %11, %13
  %15 = udiv i64 %14, 2
  %16 = add i64 %10, %15
  ret i64 %16
}

; Function Attrs: mustprogress nounwind uwtable
define linkonce_odr void @_ZNK32pxrInternal_v0_24__pxrReserved__15Tf_HashStateAPIINS_12Tf_HashStateEE11_AppendImplEv(ptr noundef nonnull align 1 dereferenceable(1) %0) #2 comdat align 2 {
  %2 = alloca ptr, align 8
  store ptr %0, ptr %2, align 8
  ret void
}

; Function Attrs: mustprogress uwtable
define linkonce_odr void @_ZN32pxrInternal_v0_24__pxrReserved__12Tf_HashState7_AppendIjEENSt9enable_ifIXsr3std11is_integralIT_EE5valueEvE4typeES3_(ptr noundef nonnull align 8 dereferenceable(9) %0, i32 noundef %1) #0 comdat align 2 {
  %3 = alloca ptr, align 8
  %4 = alloca i32, align 4
  store ptr %0, ptr %3, align 8
  store i32 %1, ptr %4, align 4
  %5 = load ptr, ptr %3, align 8
  %6 = getelementptr inbounds nuw %"class.pxrInternal_v0_24__pxrReserved__::Tf_HashState", ptr %5, i32 0, i32 1
  %7 = load i8, ptr %6, align 8
  %8 = trunc i8 %7 to i1
  br i1 %8, label %14, label %9

9:                                                ; preds = %2
  %10 = load i32, ptr %4, align 4
  %11 = zext i32 %10 to i64
  %12 = getelementptr inbounds nuw %"class.pxrInternal_v0_24__pxrReserved__::Tf_HashState", ptr %5, i32 0, i32 0
  store i64 %11, ptr %12, align 8
  %13 = getelementptr inbounds nuw %"class.pxrInternal_v0_24__pxrReserved__::Tf_HashState", ptr %5, i32 0, i32 1
  store i8 1, ptr %13, align 8
  br label %21

14:                                               ; preds = %2
  %15 = getelementptr inbounds nuw %"class.pxrInternal_v0_24__pxrReserved__::Tf_HashState", ptr %5, i32 0, i32 0
  %16 = load i64, ptr %15, align 8
  %17 = load i32, ptr %4, align 4
  %18 = zext i32 %17 to i64
  %19 = call noundef i64 @_ZNK32pxrInternal_v0_24__pxrReserved__12Tf_HashState8_CombineEmm(ptr noundef nonnull align 8 dereferenceable(9) %5, i64 noundef %16, i64 noundef %18)
  %20 = getelementptr inbounds nuw %"class.pxrInternal_v0_24__pxrReserved__::Tf_HashState", ptr %5, i32 0, i32 0
  store i64 %19, ptr %20, align 8
  br label %21

21:                                               ; preds = %14, %9
  ret void
}

; Function Attrs: mustprogress nounwind uwtable
define linkonce_odr noundef nonnull align 8 dereferenceable(9) ptr @_ZN32pxrInternal_v0_24__pxrReserved__15Tf_HashStateAPIINS_12Tf_HashStateEE10_AsDerivedEv(ptr noundef nonnull align 1 dereferenceable(1) %0) #2 comdat align 2 {
  %2 = alloca ptr, align 8
  store ptr %0, ptr %2, align 8
  %3 = load ptr, ptr %2, align 8
  ret ptr %3
}

; Function Attrs: mustprogress uwtable
define linkonce_odr void @_ZN32pxrInternal_v0_24__pxrReserved__15Tf_HashStateAPIINS_12Tf_HashStateEE11_AppendImplIRjJEEEvOT_DpOT0_(ptr noundef nonnull align 1 dereferenceable(1) %0, ptr noundef nonnull align 4 dereferenceable(4) %1) #0 comdat align 2 {
  %3 = alloca ptr, align 8
  %4 = alloca ptr, align 8
  store ptr %0, ptr %3, align 8
  store ptr %1, ptr %4, align 8
  %5 = load ptr, ptr %3, align 8
  %6 = call noundef nonnull align 8 dereferenceable(9) ptr @_ZN32pxrInternal_v0_24__pxrReserved__15Tf_HashStateAPIINS_12Tf_HashStateEE10_AsDerivedEv(ptr noundef nonnull align 1 dereferenceable(1) %5)
  %7 = load ptr, ptr %4, align 8
  %8 = load i32, ptr %7, align 4
  call void @_ZN32pxrInternal_v0_24__pxrReserved__12Tf_HashState7_AppendIjEENSt9enable_ifIXsr3std11is_integralIT_EE5valueEvE4typeES3_(ptr noundef nonnull align 8 dereferenceable(9) %6, i32 noundef %8)
  call void @_ZNK32pxrInternal_v0_24__pxrReserved__15Tf_HashStateAPIINS_12Tf_HashStateEE11_AppendImplEv(ptr noundef nonnull align 1 dereferenceable(1) %5)
  ret void
}

; Function Attrs: mustprogress nounwind uwtable
define linkonce_odr noundef i64 @_ZNK32pxrInternal_v0_24__pxrReserved__12Tf_HashState14_SwapByteOrderEm(ptr noundef nonnull align 8 dereferenceable(9) %0, i64 noundef %1) #2 comdat align 2 {
  %3 = alloca ptr, align 8
  %4 = alloca i64, align 8
  store ptr %0, ptr %3, align 8
  store i64 %1, ptr %4, align 8
  %5 = load i64, ptr %4, align 8
  %6 = and i64 %5, -72057594037927936
  %7 = lshr i64 %6, 56
  %8 = load i64, ptr %4, align 8
  %9 = and i64 %8, 71776119061217280
  %10 = lshr i64 %9, 40
  %11 = or i64 %7, %10
  %12 = load i64, ptr %4, align 8
  %13 = and i64 %12, 280375465082880
  %14 = lshr i64 %13, 24
  %15 = or i64 %11, %14
  %16 = load i64, ptr %4, align 8
  %17 = and i64 %16, 1095216660480
  %18 = lshr i64 %17, 8
  %19 = or i64 %15, %18
  %20 = load i64, ptr %4, align 8
  %21 = and i64 %20, 4278190080
  %22 = shl i64 %21, 8
  %23 = or i64 %19, %22
  %24 = load i64, ptr %4, align 8
  %25 = and i64 %24, 16711680
  %26 = shl i64 %25, 24
  %27 = or i64 %23, %26
  %28 = load i64, ptr %4, align 8
  %29 = and i64 %28, 65280
  %30 = shl i64 %29, 40
  %31 = or i64 %27, %30
  %32 = load i64, ptr %4, align 8
  %33 = and i64 %32, 255
  %34 = shl i64 %33, 56
  %35 = or i64 %31, %34
  store i64 %35, ptr %4, align 8
  %36 = load i64, ptr %4, align 8
  ret i64 %36
}

; Function Attrs: mustprogress uwtable
define linkonce_odr void @_ZN32pxrInternal_v0_24__pxrReserved__15Tf_HashStateAPIINS_12Tf_HashStateEE6AppendIJRjEEEvDpOT_(ptr noundef nonnull align 1 dereferenceable(1) %0, ptr noundef nonnull align 4 dereferenceable(4) %1) #0 comdat align 2 {
  %3 = alloca ptr, align 8
  %4 = alloca ptr, align 8
  store ptr %0, ptr %3, align 8
  store ptr %1, ptr %4, align 8
  %5 = load ptr, ptr %3, align 8
  %6 = load ptr, ptr %4, align 8
  call void @_ZN32pxrInternal_v0_24__pxrReserved__15Tf_HashStateAPIINS_12Tf_HashStateEE11_AppendImplIRjJEEEvOT_DpOT0_(ptr noundef nonnull align 1 dereferenceable(1) %5, ptr noundef nonnull align 4 dereferenceable(4) %6)
  ret void
}

; Function Attrs: mustprogress uwtable
define linkonce_odr noundef i64 @_ZNK32pxrInternal_v0_24__pxrReserved__12Tf_HashState8_GetCodeEv(ptr noundef nonnull align 8 dereferenceable(9) %0) #0 comdat align 2 {
  %2 = alloca ptr, align 8
  store ptr %0, ptr %2, align 8
  %3 = load ptr, ptr %2, align 8
  %4 = getelementptr inbounds nuw %"class.pxrInternal_v0_24__pxrReserved__::Tf_HashState", ptr %3, i32 0, i32 0
  %5 = load i64, ptr %4, align 8
  %6 = mul i64 %5, -7046029254386353067
  %7 = call noundef i64 @_ZNK32pxrInternal_v0_24__pxrReserved__12Tf_HashState14_SwapByteOrderEm(ptr noundef nonnull align 8 dereferenceable(9) %3, i64 noundef %6)
  ret i64 %7
}

; Function Attrs: mustprogress nounwind uwtable
define linkonce_odr noundef nonnull align 8 dereferenceable(9) ptr @_ZNK32pxrInternal_v0_24__pxrReserved__15Tf_HashStateAPIINS_12Tf_HashStateEE10_AsDerivedEv(ptr noundef nonnull align 1 dereferenceable(1) %0) #2 comdat align 2 {
  %2 = alloca ptr, align 8
  store ptr %0, ptr %2, align 8
  %3 = load ptr, ptr %2, align 8
  ret ptr %3
}

; Function Attrs: mustprogress uwtable
define linkonce_odr void @_ZN32pxrInternal_v0_24__pxrReserved__12TfHashAppendINS_12Tf_HashStateEEEvRT_RKNS_7SdfPathE(ptr noundef nonnull align 8 dereferenceable(9) %0, ptr noundef nonnull align 4 dereferenceable(8) %1) #0 comdat {
  %3 = alloca ptr, align 8
  %4 = alloca ptr, align 8
  %5 = alloca i32, align 4
  %6 = alloca i32, align 4
  store ptr %0, ptr %3, align 8
  store ptr %1, ptr %4, align 8
  %7 = load ptr, ptr %4, align 8
  %8 = getelementptr inbounds nuw %"class.pxrInternal_v0_24__pxrReserved__::SdfPath", ptr %7, i32 0, i32 0
  call void @llvm.memcpy.p0.p0.i64(ptr align 4 %5, ptr align 4 %8, i64 4, i1 false)
  %9 = load ptr, ptr %4, align 8
  %10 = getelementptr inbounds nuw %"class.pxrInternal_v0_24__pxrReserved__::SdfPath", ptr %9, i32 0, i32 1
  call void @llvm.memcpy.p0.p0.i64(ptr align 4 %6, ptr align 4 %10, i64 4, i1 false)
  %11 = load ptr, ptr %3, align 8
  call void @_ZN32pxrInternal_v0_24__pxrReserved__15Tf_HashStateAPIINS_12Tf_HashStateEE6AppendIJRjEEEvDpOT_(ptr noundef nonnull align 1 dereferenceable(1) %11, ptr noundef nonnull align 4 dereferenceable(4) %5)
  %12 = load ptr, ptr %3, align 8
  call void @_ZN32pxrInternal_v0_24__pxrReserved__15Tf_HashStateAPIINS_12Tf_HashStateEE6AppendIJRjEEEvDpOT_(ptr noundef nonnull align 1 dereferenceable(1) %12, ptr noundef nonnull align 4 dereferenceable(4) %6)
  ret void
}

; Function Attrs: mustprogress uwtable
define linkonce_odr noundef i64 @_ZNK32pxrInternal_v0_24__pxrReserved__15Tf_HashStateAPIINS_12Tf_HashStateEE7GetCodeEv(ptr noundef nonnull align 1 dereferenceable(1) %0) #0 comdat align 2 {
  %2 = alloca ptr, align 8
  store ptr %0, ptr %2, align 8
  %3 = load ptr, ptr %2, align 8
  %4 = call noundef nonnull align 8 dereferenceable(9) ptr @_ZNK32pxrInternal_v0_24__pxrReserved__15Tf_HashStateAPIINS_12Tf_HashStateEE10_AsDerivedEv(ptr noundef nonnull align 1 dereferenceable(1) %3)
  %5 = call noundef i64 @_ZNK32pxrInternal_v0_24__pxrReserved__12Tf_HashState8_GetCodeEv(ptr noundef nonnull align 8 dereferenceable(9) %4)
  ret i64 %5
}

; Function Attrs: mustprogress uwtable
define linkonce_odr void @_ZN32pxrInternal_v0_24__pxrReserved__11Tf_HashImplINS_12Tf_HashStateERKNS_7SdfPathEEEDTcmcl12TfHashAppendfp_clsr3stdE7forwardIT0_Efp0_EEcvv_EERT_OS5_i(ptr noundef nonnull align 8 dereferenceable(9) %0, ptr noundef nonnull align 4 dereferenceable(8) %1, i32 noundef %2) #0 comdat {
  %4 = alloca ptr, align 8
  %5 = alloca ptr, align 8
  %6 = alloca i32, align 4
  store ptr %0, ptr %4, align 8
  store ptr %1, ptr %5, align 8
  store i32 %2, ptr %6, align 4
  %7 = load ptr, ptr %4, align 8
  %8 = load ptr, ptr %5, align 8
  call void @_ZN32pxrInternal_v0_24__pxrReserved__12TfHashAppendINS_12Tf_HashStateEEEvRT_RKNS_7SdfPathE(ptr noundef nonnull align 8 dereferenceable(9) %7, ptr noundef nonnull align 4 dereferenceable(8) %8)
  ret void
}

; Function Attrs: mustprogress nounwind uwtable
define linkonce_odr void @_ZN32pxrInternal_v0_24__pxrReserved__12Tf_HashStateC2Ev(ptr noundef nonnull align 8 dereferenceable(9) %0) unnamed_addr #2 comdat align 2 {
  %2 = alloca ptr, align 8
  store ptr %0, ptr %2, align 8
  %3 = load ptr, ptr %2, align 8
  %4 = getelementptr inbounds nuw %"class.pxrInternal_v0_24__pxrReserved__::Tf_HashState", ptr %3, i32 0, i32 0
  store i64 0, ptr %4, align 8
  %5 = getelementptr inbounds nuw %"class.pxrInternal_v0_24__pxrReserved__::Tf_HashState", ptr %3, i32 0, i32 1
  store i8 0, ptr %5, align 8
  ret void
}

; Function Attrs: mustprogress uwtable
define linkonce_odr noundef i64 @_ZNK32pxrInternal_v0_24__pxrReserved__6TfHashclIRKNS_7SdfPathEEEDTcmcl11Tf_HashImplclL_ZSt7declvalIRNS_12Tf_HashStateEEDTcl9__declvalIT_ELi0EEEvEEclsr3stdE7forwardIS8_Efp_ELi0EEcvm_EEOS8_(ptr noundef nonnull align 1 dereferenceable(1) %0, ptr noundef nonnull align 4 dereferenceable(8) %1) #0 comdat align 2 {
  %3 = alloca ptr, align 8
  %4 = alloca ptr, align 8
  %5 = alloca %"class.pxrInternal_v0_24__pxrReserved__::Tf_HashState", align 8
  store ptr %0, ptr %3, align 8
  store ptr %1, ptr %4, align 8
  call void @_ZN32pxrInternal_v0_24__pxrReserved__12Tf_HashStateC2Ev(ptr noundef nonnull align 8 dereferenceable(9) %5) #10
  %6 = load ptr, ptr %4, align 8
  call void @_ZN32pxrInternal_v0_24__pxrReserved__11Tf_HashImplINS_12Tf_HashStateERKNS_7SdfPathEEEDTcmcl12TfHashAppendfp_clsr3stdE7forwardIT0_Efp0_EEcvv_EERT_OS5_i(ptr noundef nonnull align 8 dereferenceable(9) %5, ptr noundef nonnull align 4 dereferenceable(8) %6, i32 noundef 0)
  %7 = call noundef i64 @_ZNK32pxrInternal_v0_24__pxrReserved__15Tf_HashStateAPIINS_12Tf_HashStateEE7GetCodeEv(ptr noundef nonnull align 1 dereferenceable(1) %5)
  ret i64 %7
}

; Function Attrs: mustprogress uwtable
define linkonce_odr noundef i64 @_ZNK32pxrInternal_v0_24__pxrReserved__7SdfPath4HashclERKS0_(ptr noundef nonnull align 1 dereferenceable(1) %0, ptr noundef nonnull align 4 dereferenceable(8) %1) #0 comdat align 2 {
  %3 = alloca ptr, align 8
  %4 = alloca ptr, align 8
  %5 = alloca %"class.pxrInternal_v0_24__pxrReserved__::TfHash", align 1
  store ptr %0, ptr %3, align 8
  store ptr %1, ptr %4, align 8
  %6 = load ptr, ptr %4, align 8
  %7 = call noundef i64 @_ZNK32pxrInternal_v0_24__pxrReserved__6TfHashclIRKNS_7SdfPathEEEDTcmcl11Tf_HashImplclL_ZSt7declvalIRNS_12Tf_HashStateEEDTcl9__declvalIT_ELi0EEEvEEclsr3stdE7forwardIS8_Efp_ELi0EEcvm_EEOS8_(ptr noundef nonnull align 1 dereferenceable(1) %5, ptr noundef nonnull align 4 dereferenceable(8) %6)
  ret i64 %7
}

; Function Attrs: mustprogress uwtable
define linkonce_odr noundef i64 @_ZNK32pxrInternal_v0_24__pxrReserved__7SdfPath7GetHashEv(ptr noundef nonnull align 4 dereferenceable(8) %0) #0 comdat align 2 {
  %2 = alloca ptr, align 8
  %3 = alloca %"struct.pxrInternal_v0_24__pxrReserved__::SdfPath::Hash", align 1
  store ptr %0, ptr %2, align 8
  %4 = load ptr, ptr %2, align 8
  %5 = call noundef i64 @_ZNK32pxrInternal_v0_24__pxrReserved__7SdfPath4HashclERKS0_(ptr noundef nonnull align 1 dereferenceable(1) %3, ptr noundef nonnull align 4 dereferenceable(8) %4)
  ret i64 %5
}

; Function Attrs: mustprogress uwtable
define noundef i64 @_ZN32pxrInternal_v0_24__pxrReserved__10hash_valueERKNS_22HdRenderPassAovBindingE(ptr noundef nonnull align 8 dereferenceable(96) %0) #0 {
  %2 = alloca ptr, align 8
  store ptr %0, ptr %2, align 8
  %3 = load ptr, ptr %2, align 8
  %4 = getelementptr inbounds nuw %"struct.pxrInternal_v0_24__pxrReserved__::HdRenderPassAovBinding", ptr %3, i32 0, i32 2
  %5 = call noundef i64 @_ZNK32pxrInternal_v0_24__pxrReserved__7SdfPath7GetHashEv(ptr noundef nonnull align 4 dereferenceable(8) %4)
  ret i64 %5
}