; Function Attrs: mustprogress nofree norecurse nosync nounwind willreturn memory(argmem: read) uwtable
define noundef i64 @_ZN32pxrInternal_v0_24__pxrReserved__10hash_valueERKNS_22HdRenderPassAovBindingE(ptr nocapture noundef nonnull readonly align 8 dereferenceable(96) %0) local_unnamed_addr #2 {
  %2 = getelementptr inbounds nuw i8, ptr %0, i64 16
  %3 = load i32, ptr %2, align 8
  %4 = getelementptr inbounds i8, ptr %0, i64 20
  %5 = load i32, ptr %4, align 4
  %6 = zext i32 %3 to i64
  %7 = zext i32 %5 to i64
  %8 = add nuw nsw i64 %7, %6
  %9 = add nuw nsw i64 %8, 1
  %10 = mul i64 %9, %8
  %11 = lshr i64 %10, 1
  %12 = add nuw i64 %11, %7
  %13 = mul i64 %12, -7046029254386353067
  %14 = tail call noundef i64 @llvm.bswap.i64(i64 %13)
  ret i64 %14
}